target datalayout = "e-m:e-p270:32:32-p271:32:32-p272:64:64-i64:64-i128:128-f80:128-n8:16:32:64-S128"
target triple = "x86_64-pc-linux-gnu"

%struct.ConfigVariable = type { ptr, ptr, ptr, ptr, i32, i8, i8, ptr }

; Function Attrs: nounwind uwtable
define dso_local void @record_config_file_error(ptr noundef %0, ptr noundef %1, i32 noundef %2, ptr noundef %3, ptr noundef %4) #0 {
  %6 = alloca ptr, align 8
  %7 = alloca ptr, align 8
  %8 = alloca i32, align 4
  %9 = alloca ptr, align 8
  %10 = alloca ptr, align 8
  %11 = alloca ptr, align 8
  store ptr %0, ptr %6, align 8
  store ptr %1, ptr %7, align 8
  store i32 %2, ptr %8, align 4
  store ptr %3, ptr %9, align 8
  store ptr %4, ptr %10, align 8
  call void @llvm.lifetime.start.p0(i64 8, ptr %11) #15
  %12 = call ptr @palloc(i64 noundef 48)
  store ptr %12, ptr %11, align 8
  %13 = load ptr, ptr %11, align 8
  %14 = getelementptr inbounds nuw %struct.ConfigVariable, ptr %13, i32 0, i32 0
  store ptr null, ptr %14, align 8
  %15 = load ptr, ptr %11, align 8
  %16 = getelementptr inbounds nuw %struct.ConfigVariable, ptr %15, i32 0, i32 1
  store ptr null, ptr %16, align 8
  %17 = load ptr, ptr %6, align 8
  %18 = call ptr @pstrdup(ptr noundef %17)
  %19 = load ptr, ptr %11, align 8
  %20 = getelementptr inbounds nuw %struct.ConfigVariable, ptr %19, i32 0, i32 2
  store ptr %18, ptr %20, align 8
  %21 = load ptr, ptr %7, align 8
  %22 = icmp ne ptr %21, null
  br i1 %22, label %23, label %26

23:                                               ; preds = %5
  %24 = load ptr, ptr %7, align 8
  %25 = call ptr @pstrdup(ptr noundef %24)
  br label %27

26:                                               ; preds = %5
  br label %27

27:                                               ; preds = %26, %23
  %28 = phi ptr [ %25, %23 ], [ null, %26 ]
  %29 = load ptr, ptr %11, align 8
  %30 = getelementptr inbounds nuw %struct.ConfigVariable, ptr %29, i32 0, i32 3
  store ptr %28, ptr %30, align 8
  %31 = load i32, ptr %8, align 4
  %32 = load ptr, ptr %11, align 8
  %33 = getelementptr inbounds nuw %struct.ConfigVariable, ptr %32, i32 0, i32 4
  store i32 %31, ptr %33, align 8
  %34 = load ptr, ptr %11, align 8
  %35 = getelementptr inbounds nuw %struct.ConfigVariable, ptr %34, i32 0, i32 5
  store i8 1, ptr %35, align 4
  %36 = load ptr, ptr %11, align 8
  %37 = getelementptr inbounds nuw %struct.ConfigVariable, ptr %36, i32 0, i32 6
  store i8 0, ptr %37, align 1
  %38 = load ptr, ptr %11, align 8
  %39 = getelementptr inbounds nuw %struct.ConfigVariable, ptr %38, i32 0, i32 7
  store ptr null, ptr %39, align 8
  %40 = load ptr, ptr %9, align 8
  %41 = load ptr, ptr %40, align 8
  %42 = icmp eq ptr %41, null
  br i1 %42, label %43, label %46

43:                                               ; preds = %27
  %44 = load ptr, ptr %11, align 8
  %45 = load ptr, ptr %9, align 8
  store ptr %44, ptr %45, align 8
  br label %51

46:                                               ; preds = %27
  %47 = load ptr, ptr %11, align 8
  %48 = load ptr, ptr %10, align 8
  %49 = load ptr, ptr %48, align 8
  %50 = getelementptr inbounds nuw %struct.ConfigVariable, ptr %49, i32 0, i32 7
  store ptr %47, ptr %50, align 8
  br label %51

51:                                               ; preds = %46, %43
  %52 = load ptr, ptr %11, align 8
  %53 = load ptr, ptr %10, align 8
  store ptr %52, ptr %53, align 8
  call void @llvm.lifetime.end.p0(i64 8, ptr %11) #15
  ret void
}

; Function Attrs: nounwind uwtable
define dso_local zeroext i1 @ParseConfigDirectory(ptr noundef %0, ptr noundef %1, i32 noundef %2, i32 noundef %3, i32 noundef %4, ptr noundef %5, ptr noundef %6) #0 {
  %8 = alloca i1, align 1
  %9 = alloca ptr, align 8
  %10 = alloca ptr, align 8
  %11 = alloca i32, align 4
  %12 = alloca i32, align 4
  %13 = alloca i32, align 4
  %14 = alloca ptr, align 8
  %15 = alloca ptr, align 8
  %16 = alloca ptr, align 8
  %17 = alloca ptr, align 8
  %18 = alloca i32, align 4
  %19 = alloca i32, align 4
  %20 = alloca i32, align 4
  store ptr %0, ptr %9, align 8
  store ptr %1, ptr %10, align 8
  store i32 %2, ptr %11, align 4
  store i32 %3, ptr %12, align 4
  store i32 %4, ptr %13, align 4
  store ptr %5, ptr %14, align 8
  store ptr %6, ptr %15, align 8
  call void @llvm.lifetime.start.p0(i64 8, ptr %16) #15
  call void @llvm.lifetime.start.p0(i64 8, ptr %17) #15
  call void @llvm.lifetime.start.p0(i64 4, ptr %18) #15
  %21 = load ptr, ptr %9, align 8
  %22 = load ptr, ptr %10, align 8
  %23 = load i32, ptr %13, align 4
  %24 = call ptr @GetConfFilesInDir(ptr noundef %21, ptr noundef %22, i32 noundef %23, ptr noundef %18, ptr noundef %16)
  store ptr %24, ptr %17, align 8
  %25 = load ptr, ptr %17, align 8
  %26 = icmp ne ptr %25, null
  br i1 %26, label %33, label %27

27:                                               ; preds = %7
  %28 = load ptr, ptr %16, align 8
  %29 = load ptr, ptr %10, align 8
  %30 = load i32, ptr %11, align 4
  %31 = load ptr, ptr %14, align 8
  %32 = load ptr, ptr %15, align 8
  call void @record_config_file_error(ptr noundef %28, ptr noundef %29, i32 noundef %30, ptr noundef %31, ptr noundef %32)
  store i1 false, ptr %8, align 1
  store i32 1, ptr %19, align 4
  br label %60

33:                                               ; preds = %7
  call void @llvm.lifetime.start.p0(i64 4, ptr %20) #15
  store i32 0, ptr %20, align 4
  br label %34

34:                                               ; preds = %54, %33
  %35 = load i32, ptr %20, align 4
  %36 = load i32, ptr %18, align 4
  %37 = icmp slt i32 %35, %36
  br i1 %37, label %39, label %38

38:                                               ; preds = %34
  store i32 2, ptr %19, align 4
  br label %57

39:                                               ; preds = %34
  %40 = load ptr, ptr %17, align 8
  %41 = load i32, ptr %20, align 4
  %42 = sext i32 %41 to i64
  %43 = getelementptr inbounds ptr, ptr %40, i64 %42
  %44 = load ptr, ptr %43, align 8
  %45 = load ptr, ptr %10, align 8
  %46 = load i32, ptr %11, align 4
  %47 = load i32, ptr %12, align 4
  %48 = load i32, ptr %13, align 4
  %49 = load ptr, ptr %14, align 8
  %50 = load ptr, ptr %15, align 8
  %51 = call zeroext i1 @ParseConfigFile(ptr noundef %44, i1 noundef zeroext true, ptr noundef %45, i32 noundef %46, i32 noundef %47, i32 noundef %48, ptr noundef %49, ptr noundef %50)
  br i1 %51, label %53, label %52

52:                                               ; preds = %39
  store i1 false, ptr %8, align 1
  store i32 1, ptr %19, align 4
  br label %57

53:                                               ; preds = %39
  br label %54

54:                                               ; preds = %53
  %55 = load i32, ptr %20, align 4
  %56 = add i32 %55, 1
  store i32 %56, ptr %20, align 4
  br label %34, !llvm.loop !22

57:                                               ; preds = %52, %38
  call void @llvm.lifetime.end.p0(i64 4, ptr %20) #15
  %58 = load i32, ptr %19, align 4
  switch i32 %58, label %60 [
    i32 2, label %59
  ]

59:                                               ; preds = %57
  store i1 true, ptr %8, align 1
  store i32 1, ptr %19, align 4
  br label %60

60:                                               ; preds = %59, %57, %27
  call void @llvm.lifetime.end.p0(i64 4, ptr %18) #15
  call void @llvm.lifetime.end.p0(i64 8, ptr %17) #15
  call void @llvm.lifetime.end.p0(i64 8, ptr %16) #15
  %61 = load i1, ptr %8, align 1
  ret i1 %61
}