; Function Attrs: nounwind uwtable
define dso_local noundef zeroext i1 @ParseConfigDirectory(ptr noundef %0, ptr noundef %1, i32 noundef %2, i32 noundef %3, i32 noundef %4, ptr noundef captures(none) %5, ptr noundef captures(none) %6) local_unnamed_addr #0 {
  %8 = alloca ptr, align 8
  %9 = alloca i32, align 4
  call void @llvm.lifetime.start.p0(i64 8, ptr nonnull %8) #28
  call void @llvm.lifetime.start.p0(i64 4, ptr nonnull %9) #28
  %10 = call ptr @GetConfFilesInDir(ptr noundef %0, ptr noundef %1, i32 noundef %4, ptr noundef nonnull %9, ptr noundef nonnull %8) #28
  %.not = icmp eq ptr %10, null
  br i1 %.not, label %12, label %.preheader

.preheader:                                       ; preds = %7
  %11 = load i32, ptr %9, align 4
  %.not2223 = icmp slt i32 %11, 1
  br i1 %.not2223, label %.loopexit, label %.lr.ph

12:                                               ; preds = %7
  %13 = load ptr, ptr %8, align 8
  %14 = call ptr @palloc(i64 noundef 48) #28
  call void @llvm.memset.p0.i64(ptr noundef nonnull align 8 dereferenceable(16) %14, i8 0, i64 16, i1 false)
  %15 = call ptr @pstrdup(ptr noundef %13) #28
  %16 = getelementptr inbounds nuw i8, ptr %14, i64 16
  store ptr %15, ptr %16, align 8
  %.not.i = icmp eq ptr %1, null
  br i1 %.not.i, label %19, label %17

17:                                               ; preds = %12
  %18 = call ptr @pstrdup(ptr noundef nonnull %1) #28
  br label %19

19:                                               ; preds = %17, %12
  %20 = phi ptr [ %18, %17 ], [ null, %12 ]
  %21 = getelementptr inbounds nuw i8, ptr %14, i64 24
  store ptr %20, ptr %21, align 8
  %22 = getelementptr inbounds nuw i8, ptr %14, i64 32
  store i32 %2, ptr %22, align 8
  %23 = getelementptr inbounds nuw i8, ptr %14, i64 36
  store i8 1, ptr %23, align 4
  %24 = getelementptr inbounds nuw i8, ptr %14, i64 37
  store i8 0, ptr %24, align 1
  %25 = getelementptr inbounds nuw i8, ptr %14, i64 40
  store ptr null, ptr %25, align 8
  %26 = load ptr, ptr %5, align 8
  %27 = icmp eq ptr %26, null
  br i1 %27, label %28, label %29

28:                                               ; preds = %19
  store ptr %14, ptr %5, align 8
  br label %record_config_file_error.exit

29:                                               ; preds = %19
  %30 = load ptr, ptr %6, align 8
  %31 = getelementptr inbounds nuw i8, ptr %30, i64 40
  store ptr %14, ptr %31, align 8
  br label %record_config_file_error.exit

record_config_file_error.exit:                    ; preds = %28, %29
  store ptr %14, ptr %6, align 8
  br label %.loopexit

32:                                               ; preds = %.lr.ph
  %indvars.iv.next = add nuw nsw i64 %indvars.iv, 1
  %33 = load i32, ptr %9, align 4
  %34 = sext i32 %33 to i64
  %.not22.not = icmp slt i64 %indvars.iv.next, %34
  br i1 %.not22.not, label %.lr.ph, label %.loopexit, !llvm.loop !17

.lr.ph:                                           ; preds = %.preheader, %32
  %indvars.iv = phi i64 [ %indvars.iv.next, %32 ], [ 0, %.preheader ]
  %35 = getelementptr inbounds nuw ptr, ptr %10, i64 %indvars.iv
  %36 = load ptr, ptr %35, align 8
  %37 = call zeroext i1 @ParseConfigFile(ptr noundef %36, i1 noundef zeroext true, ptr noundef %1, i32 noundef %2, i32 noundef %3, i32 noundef %4, ptr noundef %5, ptr noundef %6)
  br i1 %37, label %32, label %.loopexit

.loopexit:                                        ; preds = %.lr.ph, %32, %.preheader, %record_config_file_error.exit
  %.020 = phi i1 [ false, %record_config_file_error.exit ], [ true, %.preheader ], [ %37, %32 ], [ %37, %.lr.ph ]
  call void @llvm.lifetime.end.p0(i64 4, ptr nonnull %9) #28
  call void @llvm.lifetime.end.p0(i64 8, ptr nonnull %8) #28
  ret i1 %.020
}